; Function Attrs: nounwind uwtable
define noalias nonnull ptr @l_Lake_Toml_strAtom(ptr noundef %0, ptr noundef %1, ptr noundef %2) local_unnamed_addr #1 {
  %4 = getelementptr i8, ptr %0, i64 8
  %.val = load i64, ptr %4, align 8, !tbaa !16
  %5 = shl i64 %.val, 1
  %6 = add i64 %5, -1
  %7 = inttoptr i64 %6 to ptr
  %8 = tail call ptr @l_Substring_takeWhileAux___at_Substring_trimLeft___spec__1(ptr noundef %0, ptr noundef nonnull %7, ptr noundef nonnull inttoptr (i64 1 to ptr)) #4
  %9 = tail call ptr @l_Substring_takeRightWhileAux___at_Substring_trimRight___spec__1(ptr noundef %0, ptr noundef %8, ptr noundef nonnull %7) #4
  %10 = tail call ptr @lean_string_utf8_extract(ptr noundef %0, ptr noundef %8, ptr noundef %9) #4
  %11 = ptrtoint ptr %9 to i64
  %12 = and i64 %11, 1
  %.not = icmp eq i64 %12, 0
  br i1 %.not, label %13, label %lean_dec.exit19

13:                                               ; preds = %3
  %14 = load i32, ptr %9, align 4, !tbaa !4
  %15 = icmp sgt i32 %14, 1
  br i1 %15, label %16, label %18, !prof !9

16:                                               ; preds = %13
  %17 = add nsw i32 %14, -1
  store i32 %17, ptr %9, align 4, !tbaa !4
  br label %lean_dec.exit19

18:                                               ; preds = %13
  %.not.i = icmp eq i32 %14, 0
  br i1 %.not.i, label %lean_dec.exit19, label %19

19:                                               ; preds = %18
  tail call void @lean_dec_ref_cold(ptr noundef nonnull %9) #4
  br label %lean_dec.exit19

lean_dec.exit19:                                  ; preds = %19, %18, %16, %3
  %20 = ptrtoint ptr %8 to i64
  %21 = and i64 %20, 1
  %.not22 = icmp eq i64 %21, 0
  br i1 %.not22, label %22, label %lean_dec.exit

22:                                               ; preds = %lean_dec.exit19
  %23 = load i32, ptr %8, align 4, !tbaa !4
  %24 = icmp sgt i32 %23, 1
  br i1 %24, label %25, label %27, !prof !9

25:                                               ; preds = %22
  %26 = add nsw i32 %23, -1
  store i32 %26, ptr %8, align 4, !tbaa !4
  br label %lean_dec.exit

27:                                               ; preds = %22
  %.not.i20 = icmp eq i32 %23, 0
  br i1 %.not.i20, label %lean_dec.exit, label %28

28:                                               ; preds = %27
  tail call void @lean_dec_ref_cold(ptr noundef nonnull %8) #4
  br label %lean_dec.exit

lean_dec.exit:                                    ; preds = %28, %27, %25, %lean_dec.exit19
  tail call void @lean_inc_heartbeat() #4
  %29 = tail call noalias ptr @mi_malloc_small(i64 noundef 40) #4
  %30 = icmp eq ptr %29, null
  br i1 %30, label %31, label %lean_alloc_closure.exit

31:                                               ; preds = %lean_dec.exit
  tail call void @lean_internal_panic_out_of_memory() #5
  unreachable

lean_alloc_closure.exit:                          ; preds = %lean_dec.exit
  %32 = getelementptr inbounds nuw i8, ptr %29, i64 4
  store i32 1, ptr %29, align 4, !tbaa !4
  store i32 -184549336, ptr %32, align 4
  %33 = getelementptr inbounds nuw i8, ptr %29, i64 8
  store ptr @l_Lake_Toml_strFn, ptr %33, align 8, !tbaa !10
  %34 = getelementptr inbounds nuw i8, ptr %29, i64 16
  store i16 4, ptr %34, align 8, !tbaa !12
  %35 = getelementptr inbounds nuw i8, ptr %29, i64 18
  store i16 2, ptr %35, align 2, !tbaa !12
  %36 = getelementptr inbounds nuw i8, ptr %29, i64 24
  store ptr %10, ptr %36, align 8, !tbaa !10
  %37 = getelementptr inbounds nuw i8, ptr %29, i64 32
  store ptr %1, ptr %37, align 8, !tbaa !10
  tail call void @lean_inc_heartbeat() #4
  %38 = tail call noalias ptr @mi_malloc_small(i64 noundef 40) #4
  %39 = icmp eq ptr %38, null
  br i1 %39, label %40, label %lean_alloc_closure.exit.i

40:                                               ; preds = %lean_alloc_closure.exit
  tail call void @lean_internal_panic_out_of_memory() #5
  unreachable

lean_alloc_closure.exit.i:                        ; preds = %lean_alloc_closure.exit
  %41 = getelementptr inbounds nuw i8, ptr %38, i64 4
  store i32 1, ptr %38, align 4, !tbaa !4
  store i32 -184549336, ptr %41, align 4
  %42 = getelementptr inbounds nuw i8, ptr %38, i64 8
  store ptr @l_Lake_Toml_atom___elambda__1, ptr %42, align 8, !tbaa !10
  %43 = getelementptr inbounds nuw i8, ptr %38, i64 16
  store i16 4, ptr %43, align 8, !tbaa !12
  %44 = getelementptr inbounds nuw i8, ptr %38, i64 18
  store i16 2, ptr %44, align 2, !tbaa !12
  %45 = getelementptr inbounds nuw i8, ptr %38, i64 24
  store ptr %29, ptr %45, align 8, !tbaa !10
  %46 = getelementptr inbounds nuw i8, ptr %38, i64 32
  store ptr %2, ptr %46, align 8, !tbaa !10
  %47 = load ptr, ptr @l_Lake_Toml_atom___closed__2, align 8, !tbaa !10
  tail call void @lean_inc_heartbeat() #4
  %48 = tail call noalias ptr @mi_malloc_small(i64 noundef 24) #4
  %49 = icmp eq ptr %48, null
  br i1 %49, label %50, label %l_Lake_Toml_atom.exit

50:                                               ; preds = %lean_alloc_closure.exit.i
  tail call void @lean_internal_panic_out_of_memory() #5
  unreachable

l_Lake_Toml_atom.exit:                            ; preds = %lean_alloc_closure.exit.i
  %51 = getelementptr inbounds nuw i8, ptr %48, i64 4
  store i32 1, ptr %48, align 4, !tbaa !4
  store i32 131096, ptr %51, align 4
  %52 = getelementptr inbounds nuw i8, ptr %48, i64 8
  store ptr %47, ptr %52, align 8, !tbaa !10
  %53 = getelementptr inbounds nuw i8, ptr %48, i64 16
  store ptr %38, ptr %53, align 8, !tbaa !10
  ret ptr %48
}